(lp1
(dp2
Vroute
p3
(lp4
(dp5
S'hard'
p6
I1
sVname
p7
V*Check Your Grip
p8
sS'fair'
p9
I182
sVgrade
p10
V7a+
p11
sVavg_stars
p12
V1,5
p13
sS'total'
p14
I200
sS'soft'
p15
I17
sa(dp16
g6
I12
sVname
p17
VFuzzy Undercling
p18
sg9
I177
sVgrade
p19
V6c+
p20
sVavg_stars
p21
V1,4
p22
sg14
I200
sg15
I11
sa(dp23
g6
I4
sVname
p24
VWhip-Stocking
p25
sg9
I191
sVgrade
p26
V6c
p27
sVavg_stars
p28
V1,4
p29
sg14
I200
sg15
I5
sa(dp30
g6
I3
sVname
p31
VRo Shampo
p32
sg9
I171
sVgrade
p33
V7a+
p34
sVavg_stars
p35
V1,4
p36
sg14
I200
sg15
I26
sa(dp37
g6
I19
sVname
p38
VChainsaw Massacre
p39
sg9
I178
sVgrade
p40
V7a+
p41
sVavg_stars
p42
V1,3
p43
sg14
I200
sg15
I3
sa(dp44
g6
I2
sVname
p45
VWild Yet Tasty
p46
sg9
I165
sVgrade
p47
V7a+
p48
sVavg_stars
p49
V1,1
p50
sg14
I200
sg15
I33
sa(dp51
g6
I0
sVname
p52
VAir-Ride Equipped
p53
sg9
I188
sVgrade
p54
V6c
p55
sVavg_stars
p56
V1,2
p57
sg14
I200
sg15
I12
sa(dp58
g6
I2
sVname
p59
V*Tuna Town
p60
sg9
I166
sVgrade
p61
V7c
p62
sVavg_stars
p63
V1,7
p64
sg14
I200
sg15
I32
sa(dp65
g6
I6
sVname
p66
VTwinkie
p67
sg9
I184
sVgrade
p68
V7a+
p69
sVavg_stars
p70
V1,7
p71
sg14
I200
sg15
I10
sa(dp72
g6
I0
sVname
p73
VSuper Best Friends
p74
sg9
I173
sVgrade
p75
V7b
p76
sVavg_stars
p77
V1,5
p78
sg14
I200
sg15
I27
sa(dp79
g6
I8
sVname
p80
VAle-8-One
p81
sg9
I190
sVgrade
p82
V7b
p83
sVavg_stars
p84
V1,3
p85
sg14
I200
sg15
I2
sa(dp86
g6
I22
sVname
p87
VTo Defy The Laws of Tradition
p88
sg9
I176
sVgrade
p89
V6a
p90
sVavg_stars
p91
V1,5
p92
sg14
I200
sg15
I2
sa(dp93
g6
I9
sVname
p94
VKick Me In The Jimmie
p95
sg9
I187
sVgrade
p96
V7a+
p97
sVavg_stars
p98
V1,1
p99
sg14
I200
sg15
I4
sa(dp100
g6
I41
sVname
p101
VMercy, The Huff
p102
sg9
I151
sVgrade
p103
V7b
p104
sVavg_stars
p105
V1,7
p106
sg14
I200
sg15
I8
sa(dp107
g6
I6
sVname
p108
VGung Ho
p109
sg9
I187
sVgrade
p110
V7b
p111
sVavg_stars
p112
V1,5
p113
sg14
I200
sg15
I7
sa(dp114
g6
I8
sVname
p115
VTissue Tiger
p116
sg9
I188
sVgrade
p117
V7b
p118
sVavg_stars
p119
V1,4
p120
sg14
I200
sg15
I4
sa(dp121
g6
I5
sVname
p122
VPrimus Noctum
p123
sg9
I186
sVgrade
p124
V7a+
p125
sVavg_stars
p126
V1,3
p127
sg14
I200
sg15
I9
sa(dp128
g6
I5
sVname
p129
VJesus Wept
p130
sg9
I172
sVgrade
p131
V7c
p132
sVavg_stars
p133
V1,8
p134
sg14
I200
sg15
I23
sa(dp135
g6
I4
sVname
p136
VManifest Destiny
p137
sg9
I144
sVgrade
p138
V7a+
p139
sVavg_stars
p140
V1,1
p141
sg14
I200
sg15
I52
sa(dp142
g6
I3
sVname
p143
VTacit
p144
sg9
I182
sVgrade
p145
V7a+
p146
sVavg_stars
p147
V1,1
p148
sg14
I200
sg15
I15
sa(dp149
g6
I1
sVname
p150
VFar From God
p151
sg9
I160
sVgrade
p152
V7b
p153
sVavg_stars
p154
V1,5
p155
sg14
I200
sg15
I39
sa(dp156
g6
I5
sVname
p157
VSnooker
p158
sg9
I182
sVgrade
p159
V7c+
p160
sVavg_stars
p161
V1,8
p162
sg14
I200
sg15
I13
sa(dp163
g6
I2
sVname
p164
VThe Force
p165
sg9
I178
sVgrade
p166
V7c+
p167
sVavg_stars
p168
V1,7
p169
sg14
I200
sg15
I20
sa(dp170
g6
I1
sVname
p171
VBurlier's Bane
p172
sg9
I167
sVgrade
p173
V7a+
p174
sVavg_stars
p175
V1
sg14
I200
sg15
I32
sa(dp176
g6
I8
sVname
p177
VCell Block Six
p178
sg9
I169
sVgrade
p179
V7b+
p180
sVavg_stars
p181
V1,9
p182
sg14
I181
sg15
I4
sa(dp183
g6
I0
sVname
p184
VSupafly
p185
sg9
I154
sVgrade
p186
V7b
p187
sVavg_stars
p188
V1,5
p189
sg14
I200
sg15
I46
sa(dp190
g6
I9
sVname
p191
VAbiyoyo
p192
sg9
I144
sVgrade
p193
V7b
p194
sVavg_stars
p195
V1,8
p196
sg14
I170
sg15
I17
sa(dp197
g6
I23
sVname
p198
VInfectious
p199
sg9
I173
sVgrade
p200
V7b
p201
sVavg_stars
p202
V1,6
p203
sg14
I200
sg15
I4
sa(dp204
g6
I4
sVname
p205
VFire and Brimstone
p206
sg9
I163
sVgrade
p207
V6b+
p208
sVavg_stars
p209
V1,3
p210
sg14
I183
sg15
I16
sa(dp211
g6
I22
sVname
p212
VConvicted
p213
sg9
I175
sVgrade
p214
V7c+
p215
sVavg_stars
p216
V1,8
p217
sg14
I199
sg15
I2
sa(dp218
g6
I131
sVname
p219
VBreakfast Burrito
p220
sg9
I68
sVgrade
p221
V6b
p222
sVavg_stars
p223
V1,2
p224
sg14
I200
sg15
I1
sa(dp225
g6
I1
sVname
p226
VBettavul Pipeline
p227
sg9
I179
sVgrade
p228
V7a+
p229
sVavg_stars
p230
V1,2
p231
sg14
I189
sg15
I9
sa(dp232
g6
I3
sVname
p233
VToker
p234
sg9
I165
sVgrade
p235
V6c
p236
sVavg_stars
p237
V1,1
p238
sg14
I195
sg15
I27
sa(dp239
g6
I7
sVname
p240
V*Banshee
p241
sg9
I139
sVgrade
p242
V6c+
p243
sVavg_stars
p244
V1,7
p245
sg14
I157
sg15
I11
sa(dp246
g6
I21
sVname
p247
VResurrection
p248
sg9
I164
sVgrade
p249
V7b+
p250
sVavg_stars
p251
V1,6
p252
sg14
I186
sg15
I1
sa(dp253
g6
I8
sVname
p254
VStain
p255
sg9
I180
sVgrade
p256
V7b+
p257
sVavg_stars
p258
V1,6
p259
sg14
I200
sg15
I12
sa(dp260
g6
I9
sVname
p261
VSex Farm
p262
sg9
I161
sVgrade
p263
V7b
p264
sVavg_stars
p265
V1,7
p266
sg14
I173
sg15
I3
sa(dp267
g6
I18
sVname
p268
VIniquity
p269
sg9
I153
sVgrade
p270
V7b
p271
sVavg_stars
p272
V1,7
p273
sg14
I176
sg15
I5
sa(dp274
g6
I12
sVname
p275
VSpirit Fingers
p276
sg9
I154
sVgrade
p277
V6c+
p278
sVavg_stars
p279
V1,2
p280
sg14
I174
sg15
I8
sa(dp281
g6
I40
sVname
p282
VBuddha Hole
p283
sg9
I158
sVgrade
p284
V7a
p285
sVavg_stars
p286
V1,4
p287
sg14
I200
sg15
I2
sa(dp288
g6
I26
sVname
p289
VBuff The Wood
p290
sg9
I170
sVgrade
p291
V7b
p292
sVavg_stars
p293
V1,6
p294
sg14
I199
sg15
I3
sa(dp295
g6
I3
sVname
p296
VBohica
p297
sg9
I158
sVgrade
p298
V8a
p299
sVavg_stars
p300
V1,8
p301
sg14
I182
sg15
I21
sa(dp302
g6
I6
sVname
p303
VHippocrite
p304
sg9
I154
sVgrade
p305
V7a+
p306
sVavg_stars
p307
V1,6
p308
sg14
I167
sg15
I7
sa(dp309
g6
I3
sVname
p310
VMosaic
p311
sg9
I141
sVgrade
p312
V7b+
p313
sVavg_stars
p314
V1,6
p315
sg14
I187
sg15
I43
sa(dp316
g6
I6
sVname
p317
VFourty Ounces of Justice
p318
sg9
I153
sVgrade
p319
V7c+
p320
sVavg_stars
p321
V1,6
p322
sg14
I164
sg15
I5
sa(dp323
g6
I4
sVname
p324
VMirage
p325
sg9
I130
sVgrade
p326
V7b+
p327
sVavg_stars
p328
V1,8
p329
sg14
I153
sg15
I19
sa(dp330
g6
I5
sVname
p331
VA Brief History of Climb
p332
sg9
I130
sVgrade
p333
V6b
p334
sVavg_stars
p335
V1,2
p336
sg14
I169
sg15
I34
sa(dp337
g6
I3
sVname
p338
VImmaculate Deception
p339
sg9
I127
sVgrade
p340
V7a+
p341
sVavg_stars
p342
V1,1
p343
sg14
I194
sg15
I64
sa(dp344
g6
I2
sVname
p345
VBathtub mary
p346
sg9
I133
sVgrade
p347
V6c
p348
sVavg_stars
p349
V1,3
p350
sg14
I153
sg15
I18
sa(dp351
g6
I9
sVname
p352
VStunning the Hog
p353
sg9
I150
sVgrade
p354
V7c
p355
sVavg_stars
p356
V2
sg14
I164
sg15
I5
sa(dp357
g6
I59
sVname
p358
VReliquary
p359
sg9
I138
sVgrade
p360
V7b
p361
sVavg_stars
p362
V1,5
p363
sg14
I200
sg15
I3
sa(dp364
g6
I2
sVname
p365
VMagnum Opus
p366
sg9
I139
sVgrade
p367
V7b
p368
sVavg_stars
p369
V1,3
p370
sg14
I200
sg15
I59
sa(dp371
g6
I28
sVname
p372
VDogleg
p373
sg9
I112
sVgrade
p374
V7a+
p375
sVavg_stars
p376
V1,9
p377
sg14
I141
sg15
I1
sa(dp378
g6
I0
sVname
p379
VBreakfast Burrito
p380
sg9
I0
sVgrade
p381
V6b+
p382
sVavg_stars
p383
V1,6
p384
sg14
I0
sg15
I0
sa(dp385
g6
I8
sVname
p386
VCreep Show
p387
sg9
I128
sVgrade
p388
V6b+
p389
sVavg_stars
p390
V1,3
p391
sg14
I143
sg15
I7
sa(dp392
g6
I4
sVname
p393
VGluttony
p394
sg9
I123
sVgrade
p395
V7a+
p396
sVavg_stars
p397
V1,5
p398
sg14
I135
sg15
I8
sa(dp399
g6
I8
sVname
p400
VSkin Boat
p401
sg9
I158
sVgrade
p402
V7c+
p403
sVavg_stars
p404
V1,6
p405
sg14
I171
sg15
I5
sa(dp406
g6
I0
sVname
p407
VSupafly
p408
sg9
I0
sVgrade
p409
V7a+
p410
sVavg_stars
p411
V1,3
p412
sg14
I0
sg15
I0
sa(dp413
g6
I7
sVname
p414
VWild Gift
p415
sg9
I139
sVgrade
p416
V7b+
p417
sVavg_stars
p418
V1,8
p419
sg14
I150
sg15
I4
sa(dp420
g6
I7
sVname
p421
VRocket Dog
p422
sg9
I141
sVgrade
p423
V7b
p424
sVavg_stars
p425
V1,3
p426
sg14
I153
sg15
I5
sa(dp427
g6
I16
sVname
p428
VGreen Horn
p429
sg9
I142
sVgrade
p430
V6c
p431
sVavg_stars
p432
V,9
p433
sg14
I165
sg15
I7
sa(dp434
g6
I14
sVname
p435
VStay The Hand
p436
sg9
I147
sVgrade
p437
V7a+
p438
sVavg_stars
p439
V1,5
p440
sg14
I164
sg15
I3
sa(dp441
g6
I4
sVname
p442
VHerd Mentality
p443
sg9
I116
sVgrade
p444
V7b+
p445
sVavg_stars
p446
V1,4
p447
sg14
I140
sg15
I20
sa(dp448
g6
I9
sVname
p449
VGettin' Lucky In Kentucky
p450
sg9
I123
sVgrade
p451
V6a+
p452
sVavg_stars
p453
V1,1
p454
sg14
I140
sg15
I8
sa(dp455
g6
I8
sVname
p456
VAquaduck Pocket
p457
sg9
I149
sVgrade
p458
V6c+
p459
sVavg_stars
p460
V,9
p461
sg14
I187
sg15
I30
sa(dp462
g6
I9
sVname
p463
VPrometheus Unbound
p464
sg9
I126
sVgrade
p465
V7c+
p466
sVavg_stars
p467
V2
sg14
I137
sg15
I2
sa(dp468
g6
I13
sVname
p469
VCrazy Fingers
p470
sg9
I119
sVgrade
p471
V6b
p472
sVavg_stars
p473
V1,3
p474
sg14
I140
sg15
I8
sa(dp475
g6
I25
sVname
p476
VBare Metal Teen
p477
sg9
I111
sVgrade
p478
V7a+
p479
sVavg_stars
p480
V1,7
p481
sg14
I136
sg15
I0
sa(dp482
g6
I10
sVname
p483
VOrange juice
p484
sg9
I121
sVgrade
p485
V7b+
p486
sVavg_stars
p487
V2
sg14
I133
sg15
I2
sa(dp488
g6
I22
sVname
p489
VHarvest
p490
sg9
I129
sVgrade
p491
V7c
p492
sVavg_stars
p493
V1,5
p494
sg14
I162
sg15
I11
sa(dp495
g6
I4
sVname
p496
VBelly of The Beast
p497
sg9
I125
sVgrade
p498
V7b+
p499
sVavg_stars
p500
V1,6
p501
sg14
I133
sg15
I4
sa(dp502
g6
I12
sVname
p503
VBandolier
p504
sg9
I117
sVgrade
p505
V6c
p506
sVavg_stars
p507
V1,5
p508
sg14
I138
sg15
I9
sa(dp509
g6
I36
sVname
p510
V8-Ball
p511
sg9
I105
sVgrade
p512
V7c
p513
sVavg_stars
p514
V2
sg14
I142
sg15
I1
sa(dp515
g6
I37
sVname
p516
VTable of Colors
p517
sg9
I130
sVgrade
p518
V7c+
p519
sVavg_stars
p520
V2
sg14
I174
sg15
I7
sa(dp521
g6
I18
sVname
p522
VAmarillo Sunset
p523
sg9
I103
sVgrade
p524
V6c+
p525
sVavg_stars
p526
V1,7
p527
sg14
I129
sg15
I8
sa(dp528
g6
I1
sVname
p529
VDirty Smelly Hippie
p530
sg9
I115
sVgrade
p531
V8a
p532
sVavg_stars
p533
V1,5
p534
sg14
I166
sg15
I50
sa(dp535
g6
I11
sVname
p536
VGold rush
p537
sg9
I107
sVgrade
p538
V7a
p539
sVavg_stars
p540
V1,6
p541
sg14
I121
sg15
I3
sa(dp542
g6
I1
sVname
p543
VYadda Yadda Yadda
p544
sg9
I116
sVgrade
p545
V6c+
p546
sVavg_stars
p547
V1,2
p548
sg14
I131
sg15
I14
sa(dp549
g6
I2
sVname
p550
VHoofmaker
p551
sg9
I120
sVgrade
p552
V7c+
p553
sVavg_stars
p554
V1,4
p555
sg14
I144
sg15
I22
sa(dp556
g6
I2
sVname
p557
VHakuna Matata
p558
sg9
I108
sVgrade
p559
V7a+
p560
sVavg_stars
p561
V1,4
p562
sg14
I113
sg15
I3
sa(dp563
g6
I14
sVname
p564
VSunshine
p565
sg9
I116
sVgrade
p566
V5c
p567
sVavg_stars
p568
V,9
p569
sg14
I135
sg15
I5
sa(dp570
g6
I3
sVname
p571
VBlue Eyed Honkey Jesus
p572
sg9
I112
sVgrade
p573
V7b+
p574
sVavg_stars
p575
V1,5
p576
sg14
I200
sg15
I85
sa(dp577
g6
I6
sVname
p578
VEasy Rider
p579
sg9
I113
sVgrade
p580
V7c+
p581
sVavg_stars
p582
V1,5
p583
sg14
I132
sg15
I13
sa(dp584
g6
I10
sVname
p585
VLoompa
p586
sg9
I105
sVgrade
p587
V6b
p588
sVavg_stars
p589
V1,3
p590
sg14
I118
sg15
I3
sa(dp591
g6
I1
sVname
p592
VScar Tissue
p593
sg9
I113
sVgrade
p594
V7a+
p595
sVavg_stars
p596
V1,3
p597
sg14
I125
sg15
I11
sa(dp598
g6
I23
sVname
p599
VEthics Police
p600
sg9
I100
sVgrade
p601
V7a
p602
sVavg_stars
p603
V1,4
p604
sg14
I123
sg15
I0
sa(dp605
g6
I4
sVname
p606
VFlour Power
p607
sg9
I124
sVgrade
p608
V8a
p609
sVavg_stars
p610
V1,7
p611
sg14
I134
sg15
I6
sa(dp612
g6
I4
sVname
p613
VTrust in Jesus
p614
sg9
I111
sVgrade
p615
V6c+
p616
sVavg_stars
p617
V1,1
p618
sg14
I131
sg15
I16
sa(dp619
g6
I4
sVname
p620
VWhere's the Beef?
p621
sg9
I118
sVgrade
p622
V7b+
p623
sVavg_stars
p624
V1,4
p625
sg14
I130
sg15
I8
sa(dp626
g6
I5
sVname
p627
VCenterfire
p628
sg9
I98
sVgrade
p629
V6c+
p630
sVavg_stars
p631
V1,6
p632
sg14
I106
sg15
I3
sa(dp633
g6
I19
sVname
p634
VMoonbeam
p635
sg9
I112
sVgrade
p636
V5c
p637
sVavg_stars
p638
V,8
p639
sg14
I148
sg15
I17
sa(dp640
g6
I5
sVname
p641
VThe Return of Chris Snyder
p642
sg9
I95
sVgrade
p643
V7a
p644
sVavg_stars
p645
V1,6
p646
sg14
I106
sg15
I6
sa(dp647
g6
I38
sVname
p648
VToo Many Puppies
p649
sg9
I88
sVgrade
p650
V7a+
p651
sVavg_stars
p652
V1,6
p653
sg14
I130
sg15
I4
sa(dp654
g6
I2
sVname
p655
VKaleidoscope
p656
sg9
I91
sVgrade
p657
V8a+
p658
sVavg_stars
p659
V2
sg14
I122
sg15
I29
sa(dp660
g6
I2
sVname
p661
VMona Lisa Overdrive
p662
sg9
I122
sVgrade
p663
V6c+
p664
sVavg_stars
p665
V1
sg14
I142
sg15
I18
sa(dp666
g6
I0
sVname
p667
VRecoil
p668
sg9
I95
sVgrade
p669
V7a
p670
sVavg_stars
p671
V1,2
p672
sg14
I111
sg15
I16
sa(dp673
g6
I39
sVname
p674
VA.W.O.L.
p675
sg9
I108
sVgrade
p676
V6a
p677
sVavg_stars
p678
V1,1
p679
sg14
I147
sg15
I0
sa(dp680
g6
I22
sVname
p681
VHeart shaped box
p682
sg9
I109
sVgrade
p683
V7b+
p684
sVavg_stars
p685
V1,6
p686
sg14
I133
sg15
I2
sa(dp687
g6
I2
sVname
p688
VTapeworm
p689
sg9
I92
sVgrade
p690
V7c
p691
sVavg_stars
p692
V2
sg14
I100
sg15
I6
sa(dp693
g6
I1
sVname
p694
VNaked Lunch
p695
sg9
I83
sVgrade
p696
V7a+
p697
sVavg_stars
p698
V1,3
p699
sg14
I119
sg15
I35
sa(dp700
g6
I20
sVname
p701
VOompa
p702
sg9
I91
sVgrade
p703
V6a
p704
sVavg_stars
p705
V1
sg14
I114
sg15
I3
sa(dp706
g6
I6
sVname
p707
VLeave It To Beavis
p708
sg9
I98
sVgrade
p709
V7c
p710
sVavg_stars
p711
V1,5
p712
sg14
I117
sg15
I13
sa(dp713
g6
I3
sVname
p714
VPulling Pockets
p715
sg9
I103
sVgrade
p716
V6b+
p717
sVavg_stars
p718
V1,3
p719
sg14
I116
sg15
I10
sa(dp720
g6
I5
sVname
p721
VElephant Man
p722
sg9
I110
sVgrade
p723
V8a
p724
sVavg_stars
p725
V1,8
p726
sg14
I120
sg15
I5
sa(dp727
g6
I6
sVname
p728
VBlood Bath
p729
sg9
I111
sVgrade
p730
V7b+
p731
sVavg_stars
p732
V1,4
p733
sg14
I119
sg15
I2
sa(dp734
g6
I0
sVname
p735
VBoltergeist
p736
sg9
I84
sVgrade
p737
V6a+
p738
sVavg_stars
p739
V1,1
p740
sg14
I103
sg15
I19
sa(dp741
g6
I38
sVname
p742
VGalunlati
p743
sg9
I97
sVgrade
p744
V7b
p745
sVavg_stars
p746
V1,3
p747
sg14
I146
sg15
I11
sa(dp748
g6
I5
sVname
p749
VCreature Feature
p750
sg9
I92
sVgrade
p751
V5c
p752
sVavg_stars
p753
V1,3
p754
sg14
I107
sg15
I10
sa(dp755
g6
I1
sVname
p756
VJohnny B. Good
p757
sg9
I92
sVgrade
p758
V6c
p759
sVavg_stars
p760
V1,1
p761
sg14
I104
sg15
I11
sa(dp762
g6
I7
sVname
p763
VInjured Reserve
p764
sg9
I113
sVgrade
p765
V6c
p766
sVavg_stars
p767
V1
sg14
I132
sg15
I12
sa(dp768
g6
I8
sVname
p769
V*Annie the Annihilator
p770
sg9
I94
sVgrade
p771
V6b
p772
sVavg_stars
p773
V1
sg14
I110
sg15
I8
sa(dp774
g6
I7
sVname
p775
VSteelworker
p776
sg9
I94
sVgrade
p777
V7b+
p778
sVavg_stars
p779
V1,8
p780
sg14
I101
sg15
I0
sa(dp781
g6
I1
sVname
p782
VShanghai
p783
sg9
I80
sVgrade
p784
V7c
p785
sVavg_stars
p786
V1,6
p787
sg14
I106
sg15
I25
sa(dp788
g6
I7
sVname
p789
VTuskan Raider
p790
sg9
I100
sVgrade
p791
V7c
p792
sVavg_stars
p793
V1,5
p794
sg14
I112
sg15
I5
sa(dp795
g6
I7
sVname
p796
VBeliever
p797
sg9
I85
sVgrade
p798
V6c+
p799
sVavg_stars
p800
V1,3
p801
sg14
I96
sg15
I4
sa(dp802
g6
I1
sVname
p803
VKing Me
p804
sg9
I83
sVgrade
p805
V6c+
p806
sVavg_stars
p807
V1,7
p808
sg14
I92
sg15
I8
sa(dp809
g6
I1
sVname
p810
VMule
p811
sg9
I86
sVgrade
p812
V7b+
p813
sVavg_stars
p814
V1,7
p815
sg14
I92
sg15
I5
sa(dp816
g6
I0
sVname
p817
VBlue Eyed Honkey Jesus
p818
sg9
I0
sVgrade
p819
V7b
p820
sVavg_stars
p821
V1,6
p822
sg14
I0
sg15
I0
sa(dp823
g6
I4
sVname
p824
V27 Years of Climbing
p825
sg9
I92
sVgrade
p826
V5b
p827
sVavg_stars
p828
V1
sg14
I103
sg15
I7
sa(dp829
g6
I0
sVname
p830
VFuzzy Undercling
p831
sg9
I0
sVgrade
p832
V6c
p833
sVavg_stars
p834
V1,8
p835
sg14
I0
sg15
I0
sa(dp836
g6
I36
sVname
p837
VAmerican Dream
p838
sg9
I77
sVgrade
p839
V7b
p840
sVavg_stars
p841
V1,5
p842
sg14
I114
sg15
I1
sa(dp843
g6
I1
sVname
p844
VSpank
p845
sg9
I104
sVgrade
p846
V7c+
p847
sVavg_stars
p848
V1,4
p849
sg14
I118
sg15
I13
sa(dp850
g6
I9
sVname
p851
VSuper Pinch
p852
sg9
I95
sVgrade
p853
V6b+
p854
sVavg_stars
p855
V,8
p856
sg14
I115
sg15
I11
sa(dp857
g6
I0
sVname
p858
VMagnum Opus
p859
sg9
I0
sVgrade
p860
V7a+
p861
sVavg_stars
p862
V1,1
p863
sg14
I0
sg15
I0
sa(dp864
g6
I6
sVname
p865
VThe Infidel
p866
sg9
I63
sVgrade
p867
V7a
p868
sVavg_stars
p869
V2
sg14
I72
sg15
I3
sa(dp870
g6
I1
sVname
p871
VCrack The Whip
p872
sg9
I84
sVgrade
p873
V7a+
p874
sVavg_stars
p875
V1
sg14
I122
sg15
I37
sa(dp876
g6
I2
sVname
p877
VJungle Trundler
p878
sg9
I86
sVgrade
p879
V6c
p880
sVavg_stars
p881
V,9
p882
sg14
I100
sg15
I12
sa(dp883
g6
I11
sVname
p884
VMonkey bars
p885
sg9
I81
sVgrade
p886
V6a
p887
sVavg_stars
p888
V1,1
p889
sg14
I92
sg15
I0
sa(dp890
g6
I1
sVname
p891
VRat Stew
p892
sg9
I76
sVgrade
p893
V6a
p894
sVavg_stars
p895
V1,1
p896
sg14
I85
sg15
I8
sa(dp897
g6
I2
sVname
p898
VAnother Doug Reed Route
p899
sg9
I62
sVgrade
p900
V6c+
p901
sVavg_stars
p902
V1,5
p903
sg14
I97
sg15
I33
sa(dp904
g6
I4
sVname
p905
VGirls Gone Wild...WOO!
p906
sg9
I76
sVgrade
p907
V6b+
p908
sVavg_stars
p909
V1,2
p910
sg14
I87
sg15
I7
sa(dp911
g6
I0
sVname
p912
VMonkey In The Middle
p913
sg9
I62
sVgrade
p914
V6c+
p915
sVavg_stars
p916
V1,3
p917
sg14
I133
sg15
I71
sa(dp918
g6
I4
sVname
p919
VCount Floyd Show
p920
sg9
I74
sVgrade
p921
V6c+
p922
sVavg_stars
p923
V1,1
p924
sg14
I89
sg15
I11
sa(dp925
g6
I9
sVname
p926
VThe Madness
p927
sg9
I87
sVgrade
p928
V8a+
p929
sVavg_stars
p930
V1,8
p931
sg14
I98
sg15
I2
sa(dp932
g6
I4
sVname
p933
VDragonslayer
p934
sg9
I70
sVgrade
p935
V6b+
p936
sVavg_stars
p937
V1,3
p938
sg14
I83
sg15
I9
sa(dp939
g6
I3
sVname
p940
VEye of the Needle
p941
sg9
I67
sVgrade
p942
V6c+
p943
sVavg_stars
p944
V1,6
p945
sg14
I76
sg15
I6
sa(dp946
g6
I5
sVname
p947
VJersey Connection
p948
sg9
I95
sVgrade
p949
V7b
p950
sVavg_stars
p951
V1,3
p952
sg14
I105
sg15
I5
sa(dp953
g6
I10
sVname
p954
VMama Benson
p955
sg9
I83
sVgrade
p956
V7a+
p957
sVavg_stars
p958
V1,1
p959
sg14
I97
sg15
I4
sa(dp960
g6
I5
sVname
p961
VIn The Light
p962
sg9
I83
sVgrade
p963
V6b
p964
sVavg_stars
p965
V,8
p966
sg14
I94
sg15
I6
sa(dp967
g6
I9
sVname
p968
VPeace Frog
p969
sg9
I71
sVgrade
p970
V7c
p971
sVavg_stars
p972
V1,6
p973
sg14
I87
sg15
I7
sa(dp974
g6
I1
sVname
p975
VDynabolt Gold
p976
sg9
I68
sVgrade
p977
V6a
p978
sVavg_stars
p979
V1
sg14
I82
sg15
I13
sa(dp980
g6
I1
sVname
p981
VWildfire
p982
sg9
I73
sVgrade
p983
V7a+
p984
sVavg_stars
p985
V1,5
p986
sg14
I83
sg15
I9
sa(dp987
g6
I67
sVname
p988
VTriple sec
p989
sg9
I68
sVgrade
p990
V7c
p991
sVavg_stars
p992
V1,9
p993
sg14
I151
sg15
I16
sa(dp994
g6
I3
sVname
p995
VBall Scratcher
p996
sg9
I63
sVgrade
p997
V7a+
p998
sVavg_stars
p999
V1,4
p1000
sg14
I73
sg15
I7
sa(dp1001
g6
I2
sVname
p1002
V*Return of Manimal
p1003
sg9
I69
sVgrade
p1004
V6b+
p1005
sVavg_stars
p1006
V1
sg14
I77
sg15
I6
sa(dp1007
g6
I3
sVname
p1008
VParadise Lost
p1009
sg9
I87
sVgrade
p1010
V8a
p1011
sVavg_stars
p1012
V1,9
p1013
sg14
I131
sg15
I41
sa(dp1014
g6
I2
sVname
p1015
VRandom Precision
p1016
sg9
I74
sVgrade
p1017
V6c+
p1018
sVavg_stars
p1019
V1,2
p1020
sg14
I80
sg15
I4
sa(dp1021
g6
I3
sVname
p1022
V5th Bolt Faith
p1023
sg9
I80
sVgrade
p1024
V6b
p1025
sVavg_stars
p1026
V,8
p1027
sg14
I87
sg15
I4
sa(dp1028
g6
I19
sVname
p1029
VTeam Wilson
p1030
sg9
I58
sVgrade
p1031
V7c
p1032
sVavg_stars
p1033
V1,8
p1034
sg14
I77
sg15
I0
sa(dp1035
g6
I0
sVname
p1036
VManifest Destiny
p1037
sg9
I0
sVgrade
p1038
V7a
p1039
sVavg_stars
p1040
V1,3
p1041
sg14
I0
sg15
I0
sa(dp1042
g6
I26
sVname
p1043
VCut Throat
p1044
sg9
I59
sVgrade
p1045
V8a
p1046
sVavg_stars
p1047
V2
sg14
I87
sg15
I2
sa(dp1048
g6
I2
sVname
p1049
VWay Up Yonder
p1050
sg9
I70
sVgrade
p1051
V7a+
p1052
sVavg_stars
p1053
V1,2
p1054
sg14
I86
sg15
I14
sa(dp1055
g6
I13
sVname
p1056
VThe Legend
p1057
sg9
I77
sVgrade
p1058
V8a
p1059
sVavg_stars
p1060
V1,9
p1061
sg14
I90
sg15
I0
sa(dp1062
g6
I3
sVname
p1063
VLittle Teapot
p1064
sg9
I83
sVgrade
p1065
V7a+
p1066
sVavg_stars
p1067
V1
sg14
I87
sg15
I1
sa(dp1068
g6
I5
sVname
p1069
V*Golden Touch
p1070
sg9
I78
sVgrade
p1071
V8a
p1072
sVavg_stars
p1073
V1,8
p1074
sg14
I90
sg15
I7
sa(dp1075
g6
I13
sVname
p1076
VBeer Belly
p1077
sg9
I69
sVgrade
p1078
V7c+
p1079
sVavg_stars
p1080
V1,8
p1081
sg14
I86
sg15
I4
sa(dp1082
g6
I6
sVname
p1083
VPossum Lips
p1084
sg9
I83
sVgrade
p1085
V6b+
p1086
sVavg_stars
p1087
V,7
p1088
sg14
I100
sg15
I11
sa(dp1089
g6
I12
sVname
p1090
VSamurai
p1091
sg9
I59
sVgrade
p1092
V7b
p1093
sVavg_stars
p1094
V2,1
p1095
sg14
I71
sg15
I0
sa(dp1096
g6
I2
sVname
p1097
VJingus
p1098
sg9
I61
sVgrade
p1099
V6c+
p1100
sVavg_stars
p1101
V1,3
p1102
sg14
I78
sg15
I15
sa(dp1103
g6
I0
sVname
p1104
VPushin' Up Daisies
p1105
sg9
I48
sVgrade
p1106
V8a+
p1107
sVavg_stars
p1108
V1,7
p1109
sg14
I71
sg15
I23
sa(dp1110
g6
I44
sVname
p1111
VBreak the Scene
p1112
sg9
I59
sVgrade
p1113
V7a+
p1114
sVavg_stars
p1115
V1,6
p1116
sg14
I105
sg15
I2
sa(dp1117
g6
I22
sVname
p1118
VDracula '04
p1119
sg9
I47
sVgrade
p1120
V8a
p1121
sVavg_stars
p1122
V2,2
p1123
sg14
I71
sg15
I2
sa(dp1124
g6
I3
sVname
p1125
VTrad Sucker
p1126
sg9
I71
sVgrade
p1127
V6c+
p1128
sVavg_stars
p1129
V1,1
p1130
sg14
I88
sg15
I14
sa(dp1131
g6
I3
sVname
p1132
VDifferent Strokes
p1133
sg9
I73
sVgrade
p1134
V6c+
p1135
sVavg_stars
p1136
V1,1
p1137
sg14
I77
sg15
I1
sa(dp1138
g6
I0
sVname
p1139
VTriple sec
p1140
sg9
I0
sVgrade
p1141
V7c+
p1142
sVavg_stars
p1143
V2,1
p1144
sg14
I0
sg15
I0
sa(dp1145
g6
I11
sVname
p1146
VWhipper Snapper
p1147
sg9
I71
sVgrade
p1148
V7b
p1149
sVavg_stars
p1150
V1,3
p1151
sg14
I85
sg15
I3
sa(dp1152
g6
I4
sVname
p1153
VRelaxed Atmosphere
p1154
sg9
I70
sVgrade
p1155
V6c+
p1156
sVavg_stars
p1157
V1,1
p1158
sg14
I78
sg15
I4
sa(dp1159
g6
I4
sVname
p1160
VReceiver
p1161
sg9
I64
sVgrade
p1162
V6c+
p1163
sVavg_stars
p1164
V1,3
p1165
sg14
I73
sg15
I5
sa(dp1166
g6
I4
sVname
p1167
VThe Verdict
p1168
sg9
I64
sVgrade
p1169
V7b
p1170
sVavg_stars
p1171
V1,4
p1172
sg14
I68
sg15
I0
sa(dp1173
g6
I73
sVname
p1174
VMake a Wish
p1175
sg9
I67
sVgrade
p1176
V6a
p1177
sVavg_stars
p1178
V,9
p1179
sg14
I142
sg15
I2
sa(dp1180
g6
I2
sVname
p1181
VPreemptive Strike
p1182
sg9
I58
sVgrade
p1183
V6b
p1184
sVavg_stars
p1185
V1,2
p1186
sg14
I65
sg15
I5
sa(dp1187
g6
I1
sVname
p1188
VFalse Idol
p1189
sg9
I42
sVgrade
p1190
V7b+
p1191
sVavg_stars
p1192
V1,4
p1193
sg14
I89
sg15
I46
sa(dp1194
g6
I20
sVname
p1195
VSuper Dario
p1196
sg9
I60
sVgrade
p1197
V6c
p1198
sVavg_stars
p1199
V1,2
p1200
sg14
I84
sg15
I4
sa(dp1201
g6
I4
sVname
p1202
VBethel
p1203
sg9
I62
sVgrade
p1204
V6a
p1205
sVavg_stars
p1206
V1
sg14
I71
sg15
I5
sa(dp1207
g6
I2
sVname
p1208
VPlate Tectonics
p1209
sg9
I69
sVgrade
p1210
V6a
p1211
sVavg_stars
p1212
V,9
p1213
sg14
I129
sg15
I58
sa(dp1214
g6
I1
sVname
p1215
VVelvet
p1216
sg9
I60
sVgrade
p1217
V7a
p1218
sVavg_stars
p1219
V1,4
p1220
sg14
I62
sg15
I1
sa(dp1221
g6
I5
sVname
p1222
VUltra Perm
p1223
sg9
I56
sVgrade
p1224
V8b
p1225
sVavg_stars
p1226
V1,9
p1227
sg14
I77
sg15
I16
sa(dp1228
g6
I14
sVname
p1229
V*Maypop
p1230
sg9
I68
sVgrade
p1231
V6c
p1232
sVavg_stars
p1233
V,8
p1234
sg14
I88
sg15
I6
sa(dp1235
g6
I2
sVname
p1236
VBig Money Grip
p1237
sg9
I68
sVgrade
p1238
V7b
p1239
sVavg_stars
p1240
V1,4
p1241
sg14
I72
sg15
I2
sa(dp1242
g6
I5
sVname
p1243
VMoots Madness
p1244
sg9
I67
sVgrade
p1245
V6a
p1246
sVavg_stars
p1247
V,6
p1248
sg14
I73
sg15
I1
sa(dp1249
g6
I0
sVname
p1250
VJ Rat's Back
p1251
sg9
I64
sVgrade
p1252
V7a+
p1253
sVavg_stars
p1254
V1,2
p1255
sg14
I73
sg15
I9
sa(dp1256
g6
I3
sVname
p1257
VCaptain Blondie Sinks the Ship
p1258
sg9
I61
sVgrade
p1259
V6c
p1260
sVavg_stars
p1261
V,9
p1262
sg14
I67
sg15
I3
sa(dp1263
g6
I3
sVname
p1264
VStay Left
p1265
sg9
I68
sVgrade
p1266
V6a
p1267
sVavg_stars
p1268
V,5
p1269
sg14
I74
sg15
I3
sa(dp1270
g6
I4
sVname
p1271
VSlick and the 9mm
p1272
sg9
I58
sVgrade
p1273
V6a+
p1274
sVavg_stars
p1275
V1
sg14
I65
sg15
I3
sa(dp1276
g6
I0
sVname
p1277
VPlate Tectonics
p1278
sg9
I0
sVgrade
p1279
V5c
p1280
sVavg_stars
p1281
V1,2
p1282
sg14
I0
sg15
I0
sa(dp1283
g6
I2
sVname
p1284
VHardcore Jollies
p1285
sg9
I67
sVgrade
p1286
V7a+
p1287
sVavg_stars
p1288
V1
sg14
I80
sg15
I11
sa(dp1289
g6
I0
sVname
p1290
VSeek The Truth
p1291
sg9
I67
sVgrade
p1292
V7a
p1293
sVavg_stars
p1294
V1,4
p1295
sg14
I74
sg15
I7
sa(dp1296
g6
I10
sVname
p1297
VMurano
p1298
sg9
I60
sVgrade
p1299
V6a+
p1300
sVavg_stars
p1301
V,9
p1302
sg14
I72
sg15
I2
sa(dp1303
g6
I2
sVname
p1304
VCapture the Flag
p1305
sg9
I56
sVgrade
p1306
V6c+
p1307
sVavg_stars
p1308
V1,1
p1309
sg14
I62
sg15
I4
sa(dp1310
g6
I1
sVname
p1311
VJack in the Pulpit
p1312
sg9
I59
sVgrade
p1313
V6b+
p1314
sVavg_stars
p1315
V1
sg14
I60
sg15
I0
sa(dp1316
g6
I2
sVname
p1317
VBreathe Right
p1318
sg9
I56
sVgrade
p1319
V6c+
p1320
sVavg_stars
p1321
V1,1
p1322
sg14
I60
sg15
I2
sa(dp1323
g6
I0
sVname
p1324
VMonkey In The Middle
p1325
sg9
I0
sVgrade
p1326
V6c
p1327
sVavg_stars
p1328
V1
sg14
I0
sg15
I0
sa(dp1329
g6
I6
sVname
p1330
VEyeball Chaw
p1331
sg9
I57
sVgrade
p1332
V7a+
p1333
sVavg_stars
p1334
V1,3
p1335
sg14
I65
sg15
I2
sa(dp1336
g6
I17
sVname
p1337
VBitter Ray of Sunshine
p1338
sg9
I56
sVgrade
p1339
V6b
p1340
sVavg_stars
p1341
V,9
p1342
sg14
I85
sg15
I12
sa(dp1343
g6
I3
sVname
p1344
VCruisin' For A Bruisin'
p1345
sg9
I56
sVgrade
p1346
V6b+
p1347
sVavg_stars
p1348
V,9
p1349
sg14
I62
sg15
I3
sa(dp1350
g6
I8
sVname
p1351
VSpecial Boy
p1352
sg9
I50
sVgrade
p1353
V6c+
p1354
sVavg_stars
p1355
V1,1
p1356
sg14
I59
sg15
I1
sa(dp1357
g6
I13
sVname
p1358
VHead and shoulders
p1359
sg9
I39
sVgrade
p1360
V7a
p1361
sVavg_stars
p1362
V1,8
p1363
sg14
I54
sg15
I2
sa(dp1364
g6
I12
sVname
p1365
VThe Flux Capacitor
p1366
sg9
I50
sVgrade
p1367
V7c
p1368
sVavg_stars
p1369
V1,6
p1370
sg14
I67
sg15
I5
sa(dp1371
g6
I5
sVname
p1372
VUp Yonder
p1373
sg9
I76
sVgrade
p1374
V6c+
p1375
sVavg_stars
p1376
V,9
p1377
sg14
I94
sg15
I13
sa(dp1378
g6
I0
sVname
p1379
VSnozzberries
p1380
sg9
I37
sVgrade
p1381
V7a+
p1382
sVavg_stars
p1383
V1,6
p1384
sg14
I54
sg15
I17
sasVname
p1385
VRed River Gorge
p1386
sS'coordinates'
p1387
(F38.040583699999999
F-84.503716400000002
tp1388
sVlocation
p1389
VLexington, KY
p1390
sa.